; ModuleID = '49/272.c'
source_filename = "49/272.c"
target datalayout = "e-m:e-p270:32:32-p271:32:32-p272:64:64-i64:64-f80:128-n8:16:32:64-S128"
target triple = "x86_64-pc-linux-gnu"

@.str = private unnamed_addr constant [3 x i8] c"%c\00", align 1
@.str.1 = private unnamed_addr constant [2 x i8] c"\0A\00", align 1

; Function Attrs: noinline nounwind uwtable
define dso_local i32 @main() #0 {
  %1 = alloca i32, align 4
  %2 = alloca [510 x i8], align 16
  %3 = alloca i32, align 4
  %4 = alloca i32, align 4
  %5 = alloca i32, align 4
  %6 = alloca i32, align 4
  %7 = alloca i32, align 4
  store i32 0, i32* %1, align 4
  %8 = bitcast [510 x i8]* %2 to i8*
  call void @llvm.memset.p0i8.i64(i8* align 16 %8, i8 0, i64 510, i1 false)
  store i32 0, i32* %3, align 4
  br label %9

9:                                                ; preds = %29, %0
  %10 = load i32, i32* %3, align 4
  %11 = icmp slt i32 %10, 510
  br i1 %11, label %12, label %32

12:                                               ; preds = %9
  %13 = load i32, i32* %3, align 4
  %14 = sext i32 %13 to i64
  %15 = getelementptr inbounds [510 x i8], [510 x i8]* %2, i64 0, i64 %14
  %16 = call i32 (i8*, ...) @__isoc99_scanf(i8* getelementptr inbounds ([3 x i8], [3 x i8]* @.str, i64 0, i64 0), i8* %15)
  %17 = load i32, i32* %3, align 4
  %18 = sext i32 %17 to i64
  %19 = getelementptr inbounds [510 x i8], [510 x i8]* %2, i64 0, i64 %18
  %20 = load i8, i8* %19, align 1
  %21 = sext i8 %20 to i32
  %22 = icmp eq i32 %21, 10
  br i1 %22, label %23, label %28

23:                                               ; preds = %12
  %24 = load i32, i32* %3, align 4
  %25 = sext i32 %24 to i64
  %26 = getelementptr inbounds [510 x i8], [510 x i8]* %2, i64 0, i64 %25
  store i8 0, i8* %26, align 1
  %27 = load i32, i32* %3, align 4
  store i32 %27, i32* %6, align 4
  br label %32

28:                                               ; preds = %12
  br label %29

29:                                               ; preds = %28
  %30 = load i32, i32* %3, align 4
  %31 = add nsw i32 %30, 1
  store i32 %31, i32* %3, align 4
  br label %9

32:                                               ; preds = %23, %9
  store i32 2, i32* %3, align 4
  br label %33

33:                                               ; preds = %104, %32
  %34 = load i32, i32* %3, align 4
  %35 = load i32, i32* %6, align 4
  %36 = icmp sle i32 %34, %35
  br i1 %36, label %37, label %107

37:                                               ; preds = %33
  store i32 0, i32* %4, align 4
  br label %38

38:                                               ; preds = %100, %37
  %39 = load i32, i32* %4, align 4
  %40 = load i32, i32* %6, align 4
  %41 = load i32, i32* %3, align 4
  %42 = sub nsw i32 %40, %41
  %43 = icmp sle i32 %39, %42
  br i1 %43, label %44, label %103

44:                                               ; preds = %38
  store i32 0, i32* %7, align 4
  store i32 0, i32* %5, align 4
  br label %45

45:                                               ; preds = %72, %44
  %46 = load i32, i32* %5, align 4
  %47 = load i32, i32* %3, align 4
  %48 = icmp slt i32 %46, %47
  br i1 %48, label %49, label %75

49:                                               ; preds = %45
  %50 = load i32, i32* %4, align 4
  %51 = load i32, i32* %5, align 4
  %52 = add nsw i32 %50, %51
  %53 = sext i32 %52 to i64
  %54 = getelementptr inbounds [510 x i8], [510 x i8]* %2, i64 0, i64 %53
  %55 = load i8, i8* %54, align 1
  %56 = sext i8 %55 to i32
  %57 = load i32, i32* %4, align 4
  %58 = load i32, i32* %3, align 4
  %59 = add nsw i32 %57, %58
  %60 = load i32, i32* %5, align 4
  %61 = sub nsw i32 %59, %60
  %62 = sub nsw i32 %61, 1
  %63 = sext i32 %62 to i64
  %64 = getelementptr inbounds [510 x i8], [510 x i8]* %2, i64 0, i64 %63
  %65 = load i8, i8* %64, align 1
  %66 = sext i8 %65 to i32
  %67 = icmp eq i32 %56, %66
  br i1 %67, label %68, label %71

68:                                               ; preds = %49
  %69 = load i32, i32* %7, align 4
  %70 = add nsw i32 %69, 1
  store i32 %70, i32* %7, align 4
  br label %71

71:                                               ; preds = %68, %49
  br label %72

72:                                               ; preds = %71
  %73 = load i32, i32* %5, align 4
  %74 = add nsw i32 %73, 1
  store i32 %74, i32* %5, align 4
  br label %45

75:                                               ; preds = %45
  %76 = load i32, i32* %7, align 4
  %77 = load i32, i32* %3, align 4
  %78 = icmp eq i32 %76, %77
  br i1 %78, label %79, label %99

79:                                               ; preds = %75
  %80 = load i32, i32* %4, align 4
  store i32 %80, i32* %5, align 4
  br label %81

81:                                               ; preds = %94, %79
  %82 = load i32, i32* %5, align 4
  %83 = load i32, i32* %4, align 4
  %84 = load i32, i32* %3, align 4
  %85 = add nsw i32 %83, %84
  %86 = icmp slt i32 %82, %85
  br i1 %86, label %87, label %97

87:                                               ; preds = %81
  %88 = load i32, i32* %5, align 4
  %89 = sext i32 %88 to i64
  %90 = getelementptr inbounds [510 x i8], [510 x i8]* %2, i64 0, i64 %89
  %91 = load i8, i8* %90, align 1
  %92 = sext i8 %91 to i32
  %93 = call i32 (i8*, ...) @printf(i8* getelementptr inbounds ([3 x i8], [3 x i8]* @.str, i64 0, i64 0), i32 %92)
  br label %94

94:                                               ; preds = %87
  %95 = load i32, i32* %5, align 4
  %96 = add nsw i32 %95, 1
  store i32 %96, i32* %5, align 4
  br label %81

97:                                               ; preds = %81
  %98 = call i32 (i8*, ...) @printf(i8* getelementptr inbounds ([2 x i8], [2 x i8]* @.str.1, i64 0, i64 0))
  br label %99

99:                                               ; preds = %97, %75
  br label %100

100:                                              ; preds = %99
  %101 = load i32, i32* %4, align 4
  %102 = add nsw i32 %101, 1
  store i32 %102, i32* %4, align 4
  br label %38

103:                                              ; preds = %38
  br label %104

104:                                              ; preds = %103
  %105 = load i32, i32* %3, align 4
  %106 = add nsw i32 %105, 1
  store i32 %106, i32* %3, align 4
  br label %33

107:                                              ; preds = %33
  ret i32 0
}

; Function Attrs: argmemonly nounwind willreturn
declare void @llvm.memset.p0i8.i64(i8* nocapture writeonly, i8, i64, i1 immarg) #1

declare dso_local i32 @__isoc99_scanf(i8*, ...) #2

declare dso_local i32 @printf(i8*, ...) #2


!llvm.module.flags = !{!0}
!llvm.ident = !{!1}

!0 = !{i32 1, !"wchar_size", i32 4}
!1 = !{!"clang version 10.0.0-4ubuntu1 "}
